; Function Attrs: cold nounwind optsize uwtable
define internal range(i32 -12, 1) i32 @init(ptr noundef readonly captures(none) %0) #0 {
  %2 = getelementptr inbounds nuw i8, ptr %0, i64 72
  %3 = load ptr, ptr %2, align 8, !tbaa !4
  %4 = tail call ptr @avpriv_float_dsp_alloc(i32 noundef 0) #9
  %5 = getelementptr inbounds nuw i8, ptr %3, i64 168
  store ptr %4, ptr %5, align 8, !tbaa !20
  %.not = icmp eq ptr %4, null
  %. = select i1 %.not, i32 -12, i32 0
  ret i32 %.
}